; Function Attrs: mustprogress uwtable
define void @_ZN7rocksdb20RocksDBOptionsParser13ValidityCheckEv(ptr dead_on_unwind noalias writable sret(%"class.rocksdb::Status") align 8 %0, ptr noundef nonnull readonly align 8 captures(none) dereferenceable(868) %1) local_unnamed_addr #4 align 2 personality ptr @__gxx_personality_v0 {
  %3 = alloca %"class.rocksdb::Slice", align 8
  %4 = alloca %"class.rocksdb::Slice", align 8
  %5 = alloca %"class.rocksdb::Slice", align 8
  %6 = alloca %"class.rocksdb::Slice", align 8
  %7 = getelementptr inbounds nuw i8, ptr %1, i64 841
  %8 = load i8, ptr %7, align 1, !tbaa !354, !range !143, !noundef !144
  %9 = trunc nuw i8 %8 to i1
  br i1 %9, label %13, label %10

10:                                               ; preds = %2
  call void @llvm.lifetime.start.p0(i64 16, ptr nonnull %3) #26
  store ptr @.str.80, ptr %3, align 8, !tbaa !93
  %11 = getelementptr inbounds nuw i8, ptr %3, i64 8
  store i64 58, ptr %11, align 8, !tbaa !95
  call void @llvm.lifetime.start.p0(i64 16, ptr nonnull %4) #26
  store ptr @.str.8, ptr %4, align 8, !tbaa !93
  %12 = getelementptr inbounds nuw i8, ptr %4, i64 8
  store i64 0, ptr %12, align 8, !tbaa !95
  call void @_ZN7rocksdb6StatusC2ENS0_4CodeENS0_7SubCodeERKNS_5SliceES5_NS0_8SeverityE(ptr noundef nonnull align 8 dereferenceable(16) %0, i8 noundef zeroext 2, i8 noundef zeroext 0, ptr noundef nonnull align 8 dereferenceable(16) %3, ptr noundef nonnull align 8 dereferenceable(16) %4, i8 noundef zeroext 0)
  call void @llvm.lifetime.end.p0(i64 16, ptr nonnull %4) #26
  call void @llvm.lifetime.end.p0(i64 16, ptr nonnull %3) #26
  br label %22

13:                                               ; preds = %2
  %14 = getelementptr inbounds nuw i8, ptr %1, i64 842
  %15 = load i8, ptr %14, align 2, !tbaa !355, !range !143, !noundef !144
  %16 = trunc nuw i8 %15 to i1
  br i1 %16, label %20, label %17

17:                                               ; preds = %13
  call void @llvm.lifetime.start.p0(i64 16, ptr nonnull %5) #26
  store ptr @.str.81, ptr %5, align 8, !tbaa !93
  %18 = getelementptr inbounds nuw i8, ptr %5, i64 8
  store i64 66, ptr %18, align 8, !tbaa !95
  call void @llvm.lifetime.start.p0(i64 16, ptr nonnull %6) #26
  store ptr @.str.8, ptr %6, align 8, !tbaa !93
  %19 = getelementptr inbounds nuw i8, ptr %6, i64 8
  store i64 0, ptr %19, align 8, !tbaa !95
  call void @_ZN7rocksdb6StatusC2ENS0_4CodeENS0_7SubCodeERKNS_5SliceES5_NS0_8SeverityE(ptr noundef nonnull align 8 dereferenceable(16) %0, i8 noundef zeroext 2, i8 noundef zeroext 0, ptr noundef nonnull align 8 dereferenceable(16) %5, ptr noundef nonnull align 8 dereferenceable(16) %6, i8 noundef zeroext 0)
  call void @llvm.lifetime.end.p0(i64 16, ptr nonnull %6) #26
  call void @llvm.lifetime.end.p0(i64 16, ptr nonnull %5) #26
  br label %22

20:                                               ; preds = %13
  %21 = getelementptr inbounds nuw i8, ptr %0, i64 8
  store ptr null, ptr %21, align 8, !tbaa !149, !alias.scope !482
  tail call void @llvm.memset.p0.i64(ptr noundef nonnull align 8 dereferenceable(16) %0, i8 0, i64 6, i1 false), !alias.scope !482
  br label %22

22:                                               ; preds = %20, %17, %10
  ret void
}